; ModuleID = '47/2861.c'
source_filename = "47/2861.c"
target datalayout = "e-m:e-p270:32:32-p271:32:32-p272:64:64-i64:64-f80:128-n8:16:32:64-S128"
target triple = "x86_64-pc-linux-gnu"

@.str = private unnamed_addr constant [3 x i8] c"%d\00", align 1
@.str.1 = private unnamed_addr constant [4 x i8] c" %d\00", align 1
@.str.2 = private unnamed_addr constant [2 x i8] c"\0A\00", align 1

; Function Attrs: noinline nounwind uwtable
define dso_local void @main() #0 {
  %1 = alloca i32, align 4
  %2 = alloca [100 x i32], align 16
  %3 = alloca i32*, align 8
  %4 = call i32 (i8*, ...) @__isoc99_scanf(i8* getelementptr inbounds ([3 x i8], [3 x i8]* @.str, i64 0, i64 0), i32* %1)
  %5 = getelementptr inbounds [100 x i32], [100 x i32]* %2, i64 0, i64 0
  store i32* %5, i32** %3, align 8
  br label %6

6:                                                ; preds = %16, %0
  %7 = load i32*, i32** %3, align 8
  %8 = getelementptr inbounds [100 x i32], [100 x i32]* %2, i64 0, i64 0
  %9 = load i32, i32* %1, align 4
  %10 = sext i32 %9 to i64
  %11 = getelementptr inbounds i32, i32* %8, i64 %10
  %12 = icmp ult i32* %7, %11
  br i1 %12, label %13, label %19

13:                                               ; preds = %6
  %14 = load i32*, i32** %3, align 8
  %15 = call i32 (i8*, ...) @__isoc99_scanf(i8* getelementptr inbounds ([3 x i8], [3 x i8]* @.str, i64 0, i64 0), i32* %14)
  br label %16

16:                                               ; preds = %13
  %17 = load i32*, i32** %3, align 8
  %18 = getelementptr inbounds i32, i32* %17, i32 1
  store i32* %18, i32** %3, align 8
  br label %6

19:                                               ; preds = %6
  %20 = getelementptr inbounds [100 x i32], [100 x i32]* %2, i64 0, i64 0
  %21 = load i32, i32* %1, align 4
  %22 = sext i32 %21 to i64
  %23 = getelementptr inbounds i32, i32* %20, i64 %22
  %24 = getelementptr inbounds i32, i32* %23, i64 -1
  store i32* %24, i32** %3, align 8
  br label %25

25:                                               ; preds = %46, %19
  %26 = load i32*, i32** %3, align 8
  %27 = getelementptr inbounds [100 x i32], [100 x i32]* %2, i64 0, i64 0
  %28 = icmp uge i32* %26, %27
  br i1 %28, label %29, label %49

29:                                               ; preds = %25
  %30 = load i32*, i32** %3, align 8
  %31 = getelementptr inbounds [100 x i32], [100 x i32]* %2, i64 0, i64 0
  %32 = load i32, i32* %1, align 4
  %33 = sext i32 %32 to i64
  %34 = getelementptr inbounds i32, i32* %31, i64 %33
  %35 = getelementptr inbounds i32, i32* %34, i64 -1
  %36 = icmp eq i32* %30, %35
  br i1 %36, label %37, label %41

37:                                               ; preds = %29
  %38 = load i32*, i32** %3, align 8
  %39 = load i32, i32* %38, align 4
  %40 = call i32 (i8*, ...) @printf(i8* getelementptr inbounds ([3 x i8], [3 x i8]* @.str, i64 0, i64 0), i32 %39)
  br label %45

41:                                               ; preds = %29
  %42 = load i32*, i32** %3, align 8
  %43 = load i32, i32* %42, align 4
  %44 = call i32 (i8*, ...) @printf(i8* getelementptr inbounds ([4 x i8], [4 x i8]* @.str.1, i64 0, i64 0), i32 %43)
  br label %45

45:                                               ; preds = %41, %37
  br label %46

46:                                               ; preds = %45
  %47 = load i32*, i32** %3, align 8
  %48 = getelementptr inbounds i32, i32* %47, i32 -1
  store i32* %48, i32** %3, align 8
  br label %25

49:                                               ; preds = %25
  %50 = call i32 (i8*, ...) @printf(i8* getelementptr inbounds ([2 x i8], [2 x i8]* @.str.2, i64 0, i64 0))
  ret void
}

declare dso_local i32 @__isoc99_scanf(i8*, ...) #1

declare dso_local i32 @printf(i8*, ...) #1


!llvm.module.flags = !{!0}
!llvm.ident = !{!1}

!0 = !{i32 1, !"wchar_size", i32 4}
!1 = !{!"clang version 10.0.0-4ubuntu1 "}
